target datalayout = "e-m:e-p270:32:32-p271:32:32-p272:64:64-i64:64-i128:128-f80:128-n8:16:32:64-S128"
target triple = "x86_64-pc-linux-gnu"

@ett_gsm_dtap_elem = hidden global [97 x i32] zeroinitializer, align 16
@hf_gsm_a_dtap_u2u_prot_discr = internal global i32 0, align 4
@hf_gsm_a_dtap_data = internal global i32 0, align 4
@u2u_dissector_table = internal global ptr null, align 8
@.str.931 = private unnamed_addr constant [22 x i8] c"User-user information\00", align 1

; Function Attrs: null_pointer_is_valid sspstrong uwtable
define internal zeroext i16 @de_u2u(ptr noundef %0, ptr noundef %1, ptr noundef %2, i32 noundef %3, i32 noundef %4, ptr noundef %5, i32 noundef %6) #1 {
  %8 = alloca ptr, align 8
  %9 = alloca ptr, align 8
  %10 = alloca ptr, align 8
  %11 = alloca i32, align 4
  %12 = alloca i32, align 4
  %13 = alloca ptr, align 8
  %14 = alloca i32, align 4
  %15 = alloca i32, align 4
  %16 = alloca i32, align 4
  %17 = alloca ptr, align 8
  %18 = alloca ptr, align 8
  store ptr %0, ptr %8, align 8
  store ptr %1, ptr %9, align 8
  store ptr %2, ptr %10, align 8
  store i32 %3, ptr %11, align 4
  store i32 %4, ptr %12, align 4
  store ptr %5, ptr %13, align 8
  store i32 %6, ptr %14, align 4
  call void @llvm.lifetime.start.p0(i64 4, ptr %15) #7
  call void @llvm.lifetime.start.p0(i64 4, ptr %16) #7
  call void @llvm.lifetime.start.p0(i64 8, ptr %17) #7
  call void @llvm.lifetime.start.p0(i64 8, ptr %18) #7
  %19 = load i32, ptr %11, align 4
  store i32 %19, ptr %15, align 4
  %20 = load ptr, ptr %9, align 8
  %21 = load i32, ptr @hf_gsm_a_dtap_u2u_prot_discr, align 4
  %22 = load ptr, ptr %8, align 8
  %23 = load i32, ptr %15, align 4
  %24 = call ptr @proto_tree_add_item_ret_uint(ptr noundef %20, i32 noundef %21, ptr noundef %22, i32 noundef %23, i32 noundef 1, i32 noundef 0, ptr noundef %16)
  %25 = load i32, ptr %15, align 4
  %26 = add i32 %25, 1
  store i32 %26, ptr %15, align 4
  %27 = load ptr, ptr %9, align 8
  %28 = load ptr, ptr %8, align 8
  %29 = load i32, ptr %15, align 4
  %30 = load i32, ptr %12, align 4
  %31 = sub i32 %30, 1
  %32 = load i32, ptr getelementptr ([97 x i32], ptr @ett_gsm_dtap_elem, i64 0, i64 48), align 16
  %33 = call ptr @proto_tree_add_subtree(ptr noundef %27, ptr noundef %28, i32 noundef %29, i32 noundef %31, i32 noundef %32, ptr noundef null, ptr noundef @.str.931)
  store ptr %33, ptr %17, align 8
  %34 = load ptr, ptr %17, align 8
  %35 = load i32, ptr @hf_gsm_a_dtap_data, align 4
  %36 = load ptr, ptr %8, align 8
  %37 = load i32, ptr %15, align 4
  %38 = load i32, ptr %12, align 4
  %39 = sub i32 %38, 1
  %40 = call ptr @proto_tree_add_item(ptr noundef %34, i32 noundef %35, ptr noundef %36, i32 noundef %37, i32 noundef %39, i32 noundef 0)
  %41 = load ptr, ptr %8, align 8
  %42 = load i32, ptr %15, align 4
  %43 = load i32, ptr %12, align 4
  %44 = sub i32 %43, 1
  %45 = call ptr @tvb_new_subset_length(ptr noundef %41, i32 noundef %42, i32 noundef %44)
  store ptr %45, ptr %18, align 8
  %46 = load ptr, ptr @u2u_dissector_table, align 8
  %47 = load i32, ptr %16, align 4
  %48 = load ptr, ptr %18, align 8
  %49 = load ptr, ptr %10, align 8
  %50 = load ptr, ptr %9, align 8
  %51 = call ptr @proto_tree_get_root(ptr noundef %50)
  %52 = call i32 @dissector_try_uint_with_data(ptr noundef %46, i32 noundef %47, ptr noundef %48, ptr noundef %49, ptr noundef %51, i1 noundef zeroext true, ptr noundef null)
  %53 = load i32, ptr %12, align 4
  %54 = trunc i32 %53 to i16
  call void @llvm.lifetime.end.p0(i64 8, ptr %18) #7
  call void @llvm.lifetime.end.p0(i64 8, ptr %17) #7
  call void @llvm.lifetime.end.p0(i64 4, ptr %16) #7
  call void @llvm.lifetime.end.p0(i64 4, ptr %15) #7
  ret i16 %54
}