; Function Attrs: null_pointer_is_valid sspstrong uwtable
define internal noundef zeroext i16 @de_u2u(ptr noundef %0, ptr noundef %1, ptr noundef %2, i32 noundef %3, i32 noundef %4, ptr readnone captures(none) %5, i32 %6) #1 {
  %8 = alloca i32, align 4
  call void @llvm.lifetime.start.p0(i64 4, ptr nonnull %8) #8
  %9 = load i32, ptr @hf_gsm_a_dtap_u2u_prot_discr, align 4
  %10 = call ptr @proto_tree_add_item_ret_uint(ptr noundef %1, i32 noundef %9, ptr noundef %0, i32 noundef %3, i32 noundef 1, i32 noundef 0, ptr noundef nonnull %8)
  %11 = add i32 %3, 1
  %12 = add i32 %4, -1
  %13 = load i32, ptr getelementptr inbounds nuw (i8, ptr @ett_gsm_dtap_elem, i64 192), align 16
  %14 = call ptr @proto_tree_add_subtree(ptr noundef %1, ptr noundef %0, i32 noundef %11, i32 noundef %12, i32 noundef %13, ptr noundef null, ptr noundef nonnull @.str.931)
  %15 = load i32, ptr @hf_gsm_a_dtap_data, align 4
  %16 = call ptr @proto_tree_add_item(ptr noundef %14, i32 noundef %15, ptr noundef %0, i32 noundef %11, i32 noundef %12, i32 noundef 0)
  %17 = call ptr @tvb_new_subset_length(ptr noundef %0, i32 noundef %11, i32 noundef %12)
  %18 = load ptr, ptr @u2u_dissector_table, align 8
  %19 = load i32, ptr %8, align 4
  %20 = call ptr @proto_tree_get_root(ptr noundef %1)
  %21 = call i32 @dissector_try_uint_with_data(ptr noundef %18, i32 noundef %19, ptr noundef %17, ptr noundef %2, ptr noundef %20, i1 noundef zeroext true, ptr noundef null)
  %22 = trunc i32 %4 to i16
  call void @llvm.lifetime.end.p0(i64 4, ptr nonnull %8) #8
  ret i16 %22
}